target datalayout = "e-m:e-p270:32:32-p271:32:32-p272:64:64-i64:64-i128:128-f80:128-n8:16:32:64-S128"
target triple = "x86_64-pc-linux-gnu"

%"class.cv::Mat" = type { i32, i32, i32, i32, ptr, ptr, ptr, ptr, ptr, ptr, %"struct.cv::MatSize", %"struct.cv::MatStep" }
%"struct.cv::MatSize" = type { ptr }
%"struct.cv::MatStep" = type { ptr, [2 x i64] }
%"class.cv::Point_" = type { float, float }

; Function Attrs: mustprogress nounwind uwtable
define linkonce_odr hidden noundef ptr @_ZNK2cv4Mat_IfEixEi(ptr noundef nonnull align 8 dereferenceable(96) %0, i32 noundef %1) #5 comdat align 2 {
  %3 = alloca ptr, align 8
  %4 = alloca i32, align 4
  store ptr %0, ptr %3, align 8
  store i32 %1, ptr %4, align 4
  %5 = load ptr, ptr %3, align 8
  %6 = getelementptr inbounds %"class.cv::Mat", ptr %5, i32 0, i32 4
  %7 = load ptr, ptr %6, align 8
  %8 = load i32, ptr %4, align 4
  %9 = sext i32 %8 to i64
  %10 = getelementptr inbounds %"class.cv::Mat", ptr %5, i32 0, i32 11
  %11 = getelementptr inbounds %"struct.cv::MatStep", ptr %10, i32 0, i32 0
  %12 = load ptr, ptr %11, align 8
  %13 = getelementptr inbounds i64, ptr %12, i64 0
  %14 = load i64, ptr %13, align 8
  %15 = mul i64 %9, %14
  %16 = getelementptr inbounds i8, ptr %7, i64 %15
  ret ptr %16
}

; Function Attrs: mustprogress nounwind uwtable
define internal noundef i32 @_ZL7cvFloorf(float noundef %0) #5 {
  %2 = alloca float, align 4
  store float %0, ptr %2, align 4
  %3 = load float, ptr %2, align 4
  %4 = call float @llvm.floor.f32(float %3)
  %5 = fptosi float %4 to i32
  ret i32 %5
}

; Function Attrs: mustprogress uwtable
define hidden noundef float @_ZN2cv5kinfu13bilinearDepthERKNS_4Mat_IfEENS_6Point_IfEE(ptr noundef nonnull align 8 dereferenceable(96) %0, <2 x float> %1) #7 {
  %3 = alloca float, align 4
  %4 = alloca %"class.cv::Point_", align 4
  %5 = alloca ptr, align 8
  %6 = alloca float, align 4
  %7 = alloca i32, align 4
  %8 = alloca i32, align 4
  %9 = alloca ptr, align 8
  %10 = alloca ptr, align 8
  %11 = alloca float, align 4
  %12 = alloca float, align 4
  %13 = alloca float, align 4
  %14 = alloca float, align 4
  %15 = alloca i8, align 1
  %16 = alloca i8, align 1
  %17 = alloca i8, align 1
  %18 = alloca i8, align 1
  %19 = alloca float, align 4
  %20 = alloca float, align 4
  %21 = alloca float, align 4
  %22 = alloca float, align 4
  store <2 x float> %1, ptr %4, align 4
  store ptr %0, ptr %5, align 8
  store float 0x7FF8000000000000, ptr %6, align 4
  %23 = getelementptr inbounds %"class.cv::Point_", ptr %4, i32 0, i32 0
  %24 = load float, ptr %23, align 4
  %25 = fcmp olt float %24, 0.000000e+00
  br i1 %25, label %48, label %26

26:                                               ; preds = %2
  %27 = getelementptr inbounds %"class.cv::Point_", ptr %4, i32 0, i32 0
  %28 = load float, ptr %27, align 4
  %29 = load ptr, ptr %5, align 8
  %30 = getelementptr inbounds %"class.cv::Mat", ptr %29, i32 0, i32 3
  %31 = load i32, ptr %30, align 4
  %32 = sub nsw i32 %31, 1
  %33 = sitofp i32 %32 to float
  %34 = fcmp oge float %28, %33
  br i1 %34, label %48, label %35

35:                                               ; preds = %26
  %36 = getelementptr inbounds %"class.cv::Point_", ptr %4, i32 0, i32 1
  %37 = load float, ptr %36, align 4
  %38 = fcmp olt float %37, 0.000000e+00
  br i1 %38, label %48, label %39

39:                                               ; preds = %35
  %40 = getelementptr inbounds %"class.cv::Point_", ptr %4, i32 0, i32 1
  %41 = load float, ptr %40, align 4
  %42 = load ptr, ptr %5, align 8
  %43 = getelementptr inbounds %"class.cv::Mat", ptr %42, i32 0, i32 2
  %44 = load i32, ptr %43, align 8
  %45 = sub nsw i32 %44, 1
  %46 = sitofp i32 %45 to float
  %47 = fcmp oge float %41, %46
  br i1 %47, label %48, label %49

48:                                               ; preds = %39, %35, %26, %2
  store float 0x7FF8000000000000, ptr %3, align 4
  br label %141

49:                                               ; preds = %39
  %50 = getelementptr inbounds %"class.cv::Point_", ptr %4, i32 0, i32 0
  %51 = load float, ptr %50, align 4
  %52 = call noundef i32 @_ZL7cvFloorf(float noundef %51)
  store i32 %52, ptr %7, align 4
  %53 = getelementptr inbounds %"class.cv::Point_", ptr %4, i32 0, i32 1
  %54 = load float, ptr %53, align 4
  %55 = call noundef i32 @_ZL7cvFloorf(float noundef %54)
  store i32 %55, ptr %8, align 4
  %56 = load ptr, ptr %5, align 8
  %57 = load i32, ptr %8, align 4
  %58 = add nsw i32 %57, 0
  %59 = call noundef ptr @_ZNK2cv4Mat_IfEixEi(ptr noundef nonnull align 8 dereferenceable(96) %56, i32 noundef %58)
  store ptr %59, ptr %9, align 8
  %60 = load ptr, ptr %5, align 8
  %61 = load i32, ptr %8, align 4
  %62 = add nsw i32 %61, 1
  %63 = call noundef ptr @_ZNK2cv4Mat_IfEixEi(ptr noundef nonnull align 8 dereferenceable(96) %60, i32 noundef %62)
  store ptr %63, ptr %10, align 8
  %64 = load ptr, ptr %9, align 8
  %65 = load i32, ptr %7, align 4
  %66 = add nsw i32 %65, 0
  %67 = sext i32 %66 to i64
  %68 = getelementptr inbounds float, ptr %64, i64 %67
  %69 = load float, ptr %68, align 4
  store float %69, ptr %11, align 4
  %70 = load ptr, ptr %9, align 8
  %71 = load i32, ptr %7, align 4
  %72 = add nsw i32 %71, 1
  %73 = sext i32 %72 to i64
  %74 = getelementptr inbounds float, ptr %70, i64 %73
  %75 = load float, ptr %74, align 4
  store float %75, ptr %12, align 4
  %76 = load ptr, ptr %10, align 8
  %77 = load i32, ptr %7, align 4
  %78 = add nsw i32 %77, 0
  %79 = sext i32 %78 to i64
  %80 = getelementptr inbounds float, ptr %76, i64 %79
  %81 = load float, ptr %80, align 4
  store float %81, ptr %13, align 4
  %82 = load ptr, ptr %10, align 8
  %83 = load i32, ptr %7, align 4
  %84 = add nsw i32 %83, 1
  %85 = sext i32 %84 to i64
  %86 = getelementptr inbounds float, ptr %82, i64 %85
  %87 = load float, ptr %86, align 4
  store float %87, ptr %14, align 4
  %88 = load float, ptr %11, align 4
  %89 = fcmp ogt float %88, 0.000000e+00
  %90 = zext i1 %89 to i8
  store i8 %90, ptr %15, align 1
  %91 = load float, ptr %12, align 4
  %92 = fcmp ogt float %91, 0.000000e+00
  %93 = zext i1 %92 to i8
  store i8 %93, ptr %16, align 1
  %94 = load float, ptr %13, align 4
  %95 = fcmp ogt float %94, 0.000000e+00
  %96 = zext i1 %95 to i8
  store i8 %96, ptr %17, align 1
  %97 = load float, ptr %14, align 4
  %98 = fcmp ogt float %97, 0.000000e+00
  %99 = zext i1 %98 to i8
  store i8 %99, ptr %18, align 1
  %100 = load i8, ptr %15, align 1
  %101 = trunc i8 %100 to i1
  br i1 %101, label %102, label %111

102:                                              ; preds = %49
  %103 = load i8, ptr %16, align 1
  %104 = trunc i8 %103 to i1
  br i1 %104, label %105, label %111

105:                                              ; preds = %102
  %106 = load i8, ptr %17, align 1
  %107 = trunc i8 %106 to i1
  br i1 %107, label %108, label %111

108:                                              ; preds = %105
  %109 = load i8, ptr %18, align 1
  %110 = trunc i8 %109 to i1
  br i1 %110, label %112, label %111

111:                                              ; preds = %108, %105, %102, %49
  store float 0x7FF8000000000000, ptr %3, align 4
  br label %141

112:                                              ; preds = %108
  %113 = getelementptr inbounds %"class.cv::Point_", ptr %4, i32 0, i32 0
  %114 = load float, ptr %113, align 4
  %115 = load i32, ptr %7, align 4
  %116 = sitofp i32 %115 to float
  %117 = fsub float %114, %116
  store float %117, ptr %19, align 4
  %118 = getelementptr inbounds %"class.cv::Point_", ptr %4, i32 0, i32 1
  %119 = load float, ptr %118, align 4
  %120 = load i32, ptr %8, align 4
  %121 = sitofp i32 %120 to float
  %122 = fsub float %119, %121
  store float %122, ptr %20, align 4
  %123 = load float, ptr %11, align 4
  %124 = load float, ptr %19, align 4
  %125 = load float, ptr %12, align 4
  %126 = load float, ptr %11, align 4
  %127 = fsub float %125, %126
  %128 = call float @llvm.fmuladd.f32(float %124, float %127, float %123)
  store float %128, ptr %21, align 4
  %129 = load float, ptr %13, align 4
  %130 = load float, ptr %19, align 4
  %131 = load float, ptr %14, align 4
  %132 = load float, ptr %13, align 4
  %133 = fsub float %131, %132
  %134 = call float @llvm.fmuladd.f32(float %130, float %133, float %129)
  store float %134, ptr %22, align 4
  %135 = load float, ptr %21, align 4
  %136 = load float, ptr %20, align 4
  %137 = load float, ptr %22, align 4
  %138 = load float, ptr %21, align 4
  %139 = fsub float %137, %138
  %140 = call float @llvm.fmuladd.f32(float %136, float %139, float %135)
  store float %140, ptr %3, align 4
  br label %141

141:                                              ; preds = %112, %111, %48
  %142 = load float, ptr %3, align 4
  ret float %142
}