; Function Attrs: mustprogress nofree norecurse nosync nounwind willreturn memory(read, inaccessiblemem: none) uwtable
define hidden noundef float @_ZN2cv5kinfu13bilinearDepthERKNS_4Mat_IfEENS_6Point_IfEE(ptr nocapture noundef nonnull readonly align 8 dereferenceable(96) %0, <2 x float> %1) local_unnamed_addr #5 {
  %.sroa.0.0.vec.extract = extractelement <2 x float> %1, i64 0
  %3 = fcmp olt float %.sroa.0.0.vec.extract, 0.000000e+00
  br i1 %3, label %58, label %4

4:                                                ; preds = %2
  %5 = getelementptr inbounds i8, ptr %0, i64 12
  %6 = load i32, ptr %5, align 4
  %7 = add nsw i32 %6, -1
  %8 = sitofp i32 %7 to float
  %9 = fcmp oge float %.sroa.0.0.vec.extract, %8
  %.sroa.0.4.vec.extract48 = extractelement <2 x float> %1, i64 1
  %10 = fcmp olt float %.sroa.0.4.vec.extract48, 0.000000e+00
  %or.cond = select i1 %9, i1 true, i1 %10
  br i1 %or.cond, label %58, label %11

11:                                               ; preds = %4
  %12 = getelementptr inbounds i8, ptr %0, i64 8
  %13 = load i32, ptr %12, align 8
  %14 = add nsw i32 %13, -1
  %15 = sitofp i32 %14 to float
  %16 = fcmp ult float %.sroa.0.4.vec.extract48, %15
  br i1 %16, label %17, label %58

17:                                               ; preds = %11
  %18 = tail call float @llvm.floor.f32(float %.sroa.0.0.vec.extract)
  %19 = fptosi float %18 to i32
  %20 = tail call float @llvm.floor.f32(float %.sroa.0.4.vec.extract48)
  %21 = fptosi float %20 to i32
  %22 = getelementptr inbounds i8, ptr %0, i64 16
  %23 = load ptr, ptr %22, align 8
  %24 = sext i32 %21 to i64
  %25 = getelementptr inbounds i8, ptr %0, i64 72
  %26 = load ptr, ptr %25, align 8
  %27 = load i64, ptr %26, align 8
  %28 = mul i64 %27, %24
  %29 = getelementptr inbounds i8, ptr %23, i64 %28
  %30 = add nsw i32 %21, 1
  %31 = sext i32 %30 to i64
  %32 = mul i64 %27, %31
  %33 = getelementptr inbounds i8, ptr %23, i64 %32
  %34 = sext i32 %19 to i64
  %35 = getelementptr inbounds float, ptr %29, i64 %34
  %36 = load <2 x float>, ptr %35, align 4
  %37 = getelementptr inbounds float, ptr %33, i64 %34
  %38 = load <2 x float>, ptr %37, align 4
  %39 = shufflevector <2 x float> %36, <2 x float> %38, <4 x i32> <i32 0, i32 1, i32 2, i32 3>
  %.fr = freeze <4 x float> %39
  %40 = fcmp ule <4 x float> %.fr, zeroinitializer
  %41 = bitcast <4 x i1> %40 to i4
  %.not = icmp eq i4 %41, 0
  br i1 %.not, label %42, label %58

42:                                               ; preds = %17
  %43 = sitofp i32 %19 to float
  %44 = fsub float %.sroa.0.0.vec.extract, %43
  %45 = sitofp i32 %21 to float
  %46 = fsub float %.sroa.0.4.vec.extract48, %45
  %47 = shufflevector <2 x float> %38, <2 x float> poison, <2 x i32> <i32 1, i32 poison>
  %48 = shufflevector <2 x float> %47, <2 x float> %36, <2 x i32> <i32 0, i32 3>
  %49 = shufflevector <2 x float> %38, <2 x float> %36, <2 x i32> <i32 0, i32 2>
  %50 = fsub <2 x float> %48, %49
  %51 = insertelement <2 x float> poison, float %44, i64 0
  %52 = shufflevector <2 x float> %51, <2 x float> poison, <2 x i32> zeroinitializer
  %53 = tail call <2 x float> @llvm.fmuladd.v2f32(<2 x float> %52, <2 x float> %50, <2 x float> %49)
  %54 = extractelement <2 x float> %53, i64 0
  %55 = extractelement <2 x float> %53, i64 1
  %56 = fsub float %54, %55
  %57 = tail call float @llvm.fmuladd.f32(float %46, float %56, float %55)
  br label %58

58:                                               ; preds = %17, %2, %4, %11, %42
  %.0 = phi float [ %57, %42 ], [ 0x7FF8000000000000, %11 ], [ 0x7FF8000000000000, %4 ], [ 0x7FF8000000000000, %2 ], [ 0x7FF8000000000000, %17 ]
  ret float %.0
}